; ModuleID = '7/62.c'
source_filename = "7/62.c"
target datalayout = "e-m:e-p270:32:32-p271:32:32-p272:64:64-i64:64-f80:128-n8:16:32:64-S128"
target triple = "x86_64-pc-linux-gnu"

@.str = private unnamed_addr constant [3 x i8] c"%s\00", align 1

; Function Attrs: noinline nounwind uwtable
define dso_local i32 @main() #0 {
  %1 = alloca i32, align 4
  %2 = alloca i32, align 4
  %3 = alloca i32, align 4
  %4 = alloca i32, align 4
  %5 = alloca i32, align 4
  %6 = alloca i32, align 4
  %7 = alloca [1000 x i8], align 16
  %8 = alloca [1000 x i8], align 16
  %9 = alloca [1000 x i8], align 16
  %10 = alloca i8*, align 8
  %11 = alloca i8*, align 8
  %12 = alloca i32, align 4
  %13 = alloca i32, align 4
  store i32 0, i32* %1, align 4
  %14 = getelementptr inbounds [1000 x i8], [1000 x i8]* %8, i64 0, i64 0
  store i8* %14, i8** %10, align 8
  %15 = getelementptr inbounds [1000 x i8], [1000 x i8]* %9, i64 0, i64 0
  store i8* %15, i8** %11, align 8
  %16 = getelementptr inbounds [1000 x i8], [1000 x i8]* %9, i64 0, i64 0
  %17 = call i32 (i8*, ...) bitcast (i32 (...)* @gets to i32 (i8*, ...)*)(i8* %16)
  %18 = getelementptr inbounds [1000 x i8], [1000 x i8]* %8, i64 0, i64 0
  %19 = call i32 (i8*, ...) bitcast (i32 (...)* @gets to i32 (i8*, ...)*)(i8* %18)
  %20 = getelementptr inbounds [1000 x i8], [1000 x i8]* %7, i64 0, i64 0
  %21 = call i32 (i8*, ...) bitcast (i32 (...)* @gets to i32 (i8*, ...)*)(i8* %20)
  %22 = getelementptr inbounds [1000 x i8], [1000 x i8]* %8, i64 0, i64 0
  %23 = call i64 @strlen(i8* %22) #3
  %24 = trunc i64 %23 to i32
  store i32 %24, i32* %12, align 4
  %25 = getelementptr inbounds [1000 x i8], [1000 x i8]* %9, i64 0, i64 0
  %26 = call i64 @strlen(i8* %25) #3
  %27 = trunc i64 %26 to i32
  store i32 %27, i32* %13, align 4
  store i32 0, i32* %6, align 4
  store i32 0, i32* %5, align 4
  br label %28

28:                                               ; preds = %105, %0
  %29 = load i32, i32* %6, align 4
  %30 = load i32, i32* %13, align 4
  %31 = icmp slt i32 %29, %30
  br i1 %31, label %32, label %35

32:                                               ; preds = %28
  %33 = load i32, i32* %5, align 4
  %34 = icmp eq i32 %33, 0
  br label %35

35:                                               ; preds = %32, %28
  %36 = phi i1 [ false, %28 ], [ %34, %32 ]
  br i1 %36, label %37, label %108

37:                                               ; preds = %35
  %38 = load i32, i32* %6, align 4
  store i32 %38, i32* %3, align 4
  %39 = getelementptr inbounds [1000 x i8], [1000 x i8]* %8, i64 0, i64 0
  store i8* %39, i8** %10, align 8
  %40 = getelementptr inbounds [1000 x i8], [1000 x i8]* %9, i64 0, i64 0
  %41 = load i32, i32* %6, align 4
  %42 = sext i32 %41 to i64
  %43 = getelementptr inbounds i8, i8* %40, i64 %42
  store i8* %43, i8** %11, align 8
  br label %44

44:                                               ; preds = %65, %37
  %45 = load i8*, i8** %10, align 8
  %46 = load i8, i8* %45, align 1
  %47 = sext i8 %46 to i32
  %48 = load i8*, i8** %11, align 8
  %49 = load i8, i8* %48, align 1
  %50 = sext i8 %49 to i32
  %51 = icmp ne i32 %47, %50
  br i1 %51, label %52, label %62

52:                                               ; preds = %44
  %53 = load i8*, i8** %10, align 8
  %54 = load i8, i8* %53, align 1
  %55 = sext i8 %54 to i32
  %56 = icmp ne i32 %55, 0
  br i1 %56, label %57, label %62

57:                                               ; preds = %52
  %58 = load i8*, i8** %11, align 8
  %59 = load i8, i8* %58, align 1
  %60 = sext i8 %59 to i32
  %61 = icmp ne i32 %60, 0
  br label %62

62:                                               ; preds = %57, %52, %44
  %63 = phi i1 [ false, %52 ], [ false, %44 ], [ %61, %57 ]
  br i1 %63, label %64, label %70

64:                                               ; preds = %62
  br label %65

65:                                               ; preds = %64
  %66 = load i8*, i8** %11, align 8
  %67 = getelementptr inbounds i8, i8* %66, i32 1
  store i8* %67, i8** %11, align 8
  %68 = load i32, i32* %3, align 4
  %69 = add nsw i32 %68, 1
  store i32 %69, i32* %3, align 4
  br label %44

70:                                               ; preds = %62
  store i32 0, i32* %4, align 4
  store i32 1, i32* %5, align 4
  br label %71

71:                                               ; preds = %97, %70
  %72 = load i8*, i8** %10, align 8
  %73 = load i8, i8* %72, align 1
  %74 = sext i8 %73 to i32
  %75 = icmp ne i32 %74, 0
  br i1 %75, label %76, label %81

76:                                               ; preds = %71
  %77 = load i8*, i8** %11, align 8
  %78 = load i8, i8* %77, align 1
  %79 = sext i8 %78 to i32
  %80 = icmp ne i32 %79, 0
  br label %81

81:                                               ; preds = %76, %71
  %82 = phi i1 [ false, %71 ], [ %80, %76 ]
  br i1 %82, label %83, label %104

83:                                               ; preds = %81
  %84 = load i8*, i8** %10, align 8
  %85 = load i8, i8* %84, align 1
  %86 = sext i8 %85 to i32
  %87 = load i8*, i8** %11, align 8
  %88 = load i8, i8* %87, align 1
  %89 = sext i8 %88 to i32
  %90 = icmp ne i32 %86, %89
  br i1 %90, label %91, label %96

91:                                               ; preds = %83
  %92 = load i32, i32* %4, align 4
  %93 = load i32, i32* %12, align 4
  %94 = icmp slt i32 %92, %93
  br i1 %94, label %95, label %96

95:                                               ; preds = %91
  store i32 0, i32* %5, align 4
  br label %104

96:                                               ; preds = %91, %83
  br label %97

97:                                               ; preds = %96
  %98 = load i8*, i8** %10, align 8
  %99 = getelementptr inbounds i8, i8* %98, i32 1
  store i8* %99, i8** %10, align 8
  %100 = load i8*, i8** %11, align 8
  %101 = getelementptr inbounds i8, i8* %100, i32 1
  store i8* %101, i8** %11, align 8
  %102 = load i32, i32* %4, align 4
  %103 = add nsw i32 %102, 1
  store i32 %103, i32* %4, align 4
  br label %71

104:                                              ; preds = %95, %81
  br label %105

105:                                              ; preds = %104
  %106 = load i32, i32* %3, align 4
  %107 = add nsw i32 %106, 1
  store i32 %107, i32* %6, align 4
  br label %28

108:                                              ; preds = %35
  %109 = load i32, i32* %3, align 4
  %110 = load i32, i32* %13, align 4
  %111 = icmp eq i32 %109, %110
  br i1 %111, label %112, label %115

112:                                              ; preds = %108
  %113 = getelementptr inbounds [1000 x i8], [1000 x i8]* %9, i64 0, i64 0
  %114 = call i32 (i8*, ...) @printf(i8* getelementptr inbounds ([3 x i8], [3 x i8]* @.str, i64 0, i64 0), i8* %113)
  br label %133

115:                                              ; preds = %108
  %116 = load i32, i32* %3, align 4
  store i32 %116, i32* %2, align 4
  %117 = load i32, i32* %2, align 4
  %118 = sext i32 %117 to i64
  %119 = getelementptr inbounds [1000 x i8], [1000 x i8]* %9, i64 0, i64 %118
  store i8 0, i8* %119, align 1
  %120 = getelementptr inbounds [1000 x i8], [1000 x i8]* %9, i64 0, i64 0
  %121 = call i32 (i8*, ...) @printf(i8* getelementptr inbounds ([3 x i8], [3 x i8]* @.str, i64 0, i64 0), i8* %120)
  %122 = getelementptr inbounds [1000 x i8], [1000 x i8]* %7, i64 0, i64 0
  %123 = call i32 (i8*, ...) @printf(i8* getelementptr inbounds ([3 x i8], [3 x i8]* @.str, i64 0, i64 0), i8* %122)
  %124 = getelementptr inbounds [1000 x i8], [1000 x i8]* %9, i64 0, i64 0
  %125 = load i32, i32* %2, align 4
  %126 = sext i32 %125 to i64
  %127 = getelementptr inbounds i8, i8* %124, i64 %126
  %128 = load i32, i32* %12, align 4
  %129 = sext i32 %128 to i64
  %130 = getelementptr inbounds i8, i8* %127, i64 %129
  store i8* %130, i8** %11, align 8
  %131 = load i8*, i8** %11, align 8
  %132 = call i32 (i8*, ...) @printf(i8* getelementptr inbounds ([3 x i8], [3 x i8]* @.str, i64 0, i64 0), i8* %131)
  br label %133

133:                                              ; preds = %115, %112
  ret i32 0
}

declare dso_local i32 @gets(...) #1

; Function Attrs: nounwind readonly
declare dso_local i64 @strlen(i8*) #2

declare dso_local i32 @printf(i8*, ...) #1


!llvm.module.flags = !{!0}
!llvm.ident = !{!1}

!0 = !{i32 1, !"wchar_size", i32 4}
!1 = !{!"clang version 10.0.0-4ubuntu1 "}
